; Function Attrs: nounwind sspstrong uwtable
define internal void @rv128_base_cpu_init(ptr noundef %obj) #3 {
entry:
  %0 = load i8, ptr @mttcg_enabled, align 1
  %tobool = trunc i8 %0 to i1
  br i1 %tobool, label %if.then, label %if.end

if.then:                                          ; preds = %entry
  tail call void (ptr, ...) @error_report(ptr noundef nonnull @.str.359) #14
  tail call void @exit(i32 noundef 1) #18
  unreachable

if.end:                                           ; preds = %entry
  %call.i = tail call ptr @object_dynamic_cast_assert(ptr noundef %obj, ptr noundef nonnull @.str.250, ptr noundef nonnull @.str.282, i32 noundef 46, ptr noundef nonnull @__func__.RISCV_CPU) #14
  %misa_mxl.i = getelementptr inbounds nuw i8, ptr %call.i, i64 15184
  store i32 3, ptr %misa_mxl.i, align 16
  %misa_mxl_max.i = getelementptr inbounds nuw i8, ptr %call.i, i64 15188
  store i32 3, ptr %misa_mxl_max.i, align 4
  %misa_ext.i = getelementptr inbounds nuw i8, ptr %call.i, i64 15192
  store i32 0, ptr %misa_ext.i, align 8
  %misa_ext_mask.i = getelementptr inbounds nuw i8, ptr %call.i, i64 15196
  store i32 0, ptr %misa_ext_mask.i, align 4
  %priv_ver = getelementptr inbounds nuw i8, ptr %call.i, i64 15160
  store i64 2, ptr %priv_ver, align 8
  ret void
}